; Function Attrs: mustprogress nounwind uwtable
define internal fastcc void @"_ZSt25__unguarded_linear_insertIPN12_GLOBAL__N_19ChainElemEN9__gnu_cxx5__ops14_Val_comp_iterIZNS0_22sortChainInOffsetOrderERN4llvm11SmallVectorIS1_Lj1EEEE3$_0EEEvT_T0_"(ptr noundef %0) unnamed_addr #0 {
  %2 = alloca %"struct.(anonymous namespace)::ChainElem", align 8
  %3 = load ptr, ptr %0, align 8
  store ptr %3, ptr %2, align 8
  %4 = getelementptr inbounds nuw i8, ptr %2, i64 8
  %5 = getelementptr inbounds nuw i8, ptr %0, i64 8
  %6 = getelementptr inbounds i8, ptr %2, i64 16
  %7 = getelementptr inbounds i8, ptr %0, i64 16
  %8 = load i32, ptr %7, align 8
  store i32 %8, ptr %6, align 8
  %9 = load i64, ptr %5, align 8
  store i64 %9, ptr %4, align 8
  store i32 0, ptr %7, align 8
  br label %10

10:                                               ; preds = %_ZN12_GLOBAL__N_19ChainElemaSEOS0_.exit, %1
  %11 = phi i32 [ %.pr, %_ZN12_GLOBAL__N_19ChainElemaSEOS0_.exit ], [ %8, %1 ]
  %.09 = phi ptr [ %.0, %_ZN12_GLOBAL__N_19ChainElemaSEOS0_.exit ], [ %0, %1 ]
  %.0 = getelementptr inbounds i8, ptr %.09, i64 -24
  %12 = getelementptr inbounds i8, ptr %.09, i64 -16
  %13 = icmp ult i32 %11, 65
  br i1 %13, label %14, label %_ZNK4llvm5APIntneERKS0_.exit.i.i

14:                                               ; preds = %10
  %15 = load i64, ptr %4, align 8
  %16 = load i64, ptr %12, align 8
  %17 = icmp eq i64 %15, %16
  br i1 %17, label %"_ZN9__gnu_cxx5__ops14_Val_comp_iterIZN12_GLOBAL__N_122sortChainInOffsetOrderERN4llvm11SmallVectorINS2_9ChainElemELj1EEEE3$_0EclIS5_PS5_EEbRT_T0_.exit", label %19

_ZNK4llvm5APIntneERKS0_.exit.i.i:                 ; preds = %10
  %18 = call noundef zeroext i1 @_ZNK4llvm5APInt13equalSlowCaseERKS0_(ptr noundef nonnull align 8 dereferenceable(12) %4, ptr noundef nonnull align 8 dereferenceable(12) %12) #20
  br i1 %18, label %"_ZN9__gnu_cxx5__ops14_Val_comp_iterIZN12_GLOBAL__N_122sortChainInOffsetOrderERN4llvm11SmallVectorINS2_9ChainElemELj1EEEE3$_0EclIS5_PS5_EEbRT_T0_.exit", label %19

19:                                               ; preds = %_ZNK4llvm5APIntneERKS0_.exit.i.i, %14
  %20 = call noundef i32 @_ZNK4llvm5APInt13compareSignedERKS0_(ptr noundef nonnull align 8 dereferenceable(12) %4, ptr noundef nonnull align 8 dereferenceable(12) %12) #20
  %21 = icmp slt i32 %20, 0
  br i1 %21, label %25, label %38

"_ZN9__gnu_cxx5__ops14_Val_comp_iterIZN12_GLOBAL__N_122sortChainInOffsetOrderERN4llvm11SmallVectorINS2_9ChainElemELj1EEEE3$_0EclIS5_PS5_EEbRT_T0_.exit": ; preds = %14, %_ZNK4llvm5APIntneERKS0_.exit.i.i
  %22 = load ptr, ptr %2, align 8
  %23 = load ptr, ptr %.0, align 8
  %24 = call noundef zeroext i1 @_ZNK4llvm11Instruction11comesBeforeEPKS0_(ptr noundef nonnull align 8 dereferenceable(72) %22, ptr noundef %23) #17
  br i1 %24, label %25, label %38

25:                                               ; preds = %19, %"_ZN9__gnu_cxx5__ops14_Val_comp_iterIZN12_GLOBAL__N_122sortChainInOffsetOrderERN4llvm11SmallVectorINS2_9ChainElemELj1EEEE3$_0EclIS5_PS5_EEbRT_T0_.exit"
  %26 = load ptr, ptr %.0, align 8
  store ptr %26, ptr %.09, align 8
  %27 = getelementptr inbounds nuw i8, ptr %.09, i64 8
  %28 = getelementptr inbounds i8, ptr %.09, i64 16
  %29 = load i32, ptr %28, align 8
  %30 = icmp ult i32 %29, 65
  br i1 %30, label %_ZN12_GLOBAL__N_19ChainElemaSEOS0_.exit, label %31

31:                                               ; preds = %25
  %32 = load ptr, ptr %27, align 8
  %33 = icmp eq ptr %32, null
  br i1 %33, label %_ZN12_GLOBAL__N_19ChainElemaSEOS0_.exit, label %34

34:                                               ; preds = %31
  call void @_ZdaPv(ptr noundef nonnull %32) #21
  br label %_ZN12_GLOBAL__N_19ChainElemaSEOS0_.exit

_ZN12_GLOBAL__N_19ChainElemaSEOS0_.exit:          ; preds = %25, %31, %34
  %35 = load i64, ptr %12, align 8
  store i64 %35, ptr %27, align 8
  %36 = getelementptr inbounds i8, ptr %.09, i64 -8
  %37 = load i32, ptr %36, align 8
  store i32 %37, ptr %28, align 8
  store i32 0, ptr %36, align 8
  %.pr = load i32, ptr %6, align 8
  br label %10, !llvm.loop !124

38:                                               ; preds = %19, %"_ZN9__gnu_cxx5__ops14_Val_comp_iterIZN12_GLOBAL__N_122sortChainInOffsetOrderERN4llvm11SmallVectorINS2_9ChainElemELj1EEEE3$_0EclIS5_PS5_EEbRT_T0_.exit"
  %39 = load ptr, ptr %2, align 8
  store ptr %39, ptr %.09, align 8
  %40 = getelementptr inbounds nuw i8, ptr %.09, i64 8
  %41 = getelementptr inbounds i8, ptr %.09, i64 16
  %42 = load i32, ptr %41, align 8
  %43 = icmp ult i32 %42, 65
  br i1 %43, label %_ZN12_GLOBAL__N_19ChainElemD2Ev.exit, label %44

44:                                               ; preds = %38
  %45 = load ptr, ptr %40, align 8
  %46 = icmp eq ptr %45, null
  br i1 %46, label %_ZN12_GLOBAL__N_19ChainElemD2Ev.exit, label %47

47:                                               ; preds = %44
  call void @_ZdaPv(ptr noundef nonnull %45) #21
  br label %_ZN12_GLOBAL__N_19ChainElemD2Ev.exit

_ZN12_GLOBAL__N_19ChainElemD2Ev.exit:             ; preds = %47, %44, %38
  %48 = load i64, ptr %4, align 8
  store i64 %48, ptr %40, align 8
  %49 = load i32, ptr %6, align 8
  store i32 %49, ptr %41, align 8
  ret void
}